; Function Attrs: mustprogress uwtable
define hidden void @_ZN3sls12bv_lookahead15root_assertions4nextEv(ptr noundef nonnull align 8 captures(none) dereferenceable(12) %0) local_unnamed_addr #3 align 2 {
  %2 = load ptr, ptr %0, align 8, !tbaa !225
  %3 = getelementptr inbounds nuw i8, ptr %2, i64 144
  %4 = load i8, ptr %3, align 8, !tbaa !163, !range !94, !noundef !95
  %5 = trunc nuw i8 %4 to i1
  br i1 %5, label %.critedge, label %.preheader

.preheader:                                       ; preds = %1
  %6 = getelementptr inbounds nuw i8, ptr %0, i64 8
  %7 = getelementptr inbounds nuw i8, ptr %2, i64 32
  %8 = load ptr, ptr %7, align 8, !tbaa !92
  %9 = getelementptr inbounds nuw i8, ptr %8, i64 112
  %10 = load ptr, ptr %9, align 8, !tbaa !169
  %11 = icmp eq ptr %10, null
  br i1 %11, label %.critedge, label %_ZNK6vectorIN3sat7literalELb0EjE4sizeEv.exit.preheader

_ZNK6vectorIN3sat7literalELb0EjE4sizeEv.exit.preheader: ; preds = %.preheader
  %.pre = load i32, ptr %6, align 8, !tbaa !228
  br label %_ZNK6vectorIN3sat7literalELb0EjE4sizeEv.exit

_ZNK6vectorIN3sat7literalELb0EjE4sizeEv.exit:     ; preds = %_ZNK6vectorIN3sat7literalELb0EjE4sizeEv.exit.preheader, %_ZN3sls12bv_lookahead13is_bv_literalEN3sat7literalE.exit.thread
  %12 = phi i32 [ %48, %_ZN3sls12bv_lookahead13is_bv_literalEN3sat7literalE.exit.thread ], [ %.pre, %_ZNK6vectorIN3sat7literalELb0EjE4sizeEv.exit.preheader ]
  %13 = phi ptr [ %53, %_ZN3sls12bv_lookahead13is_bv_literalEN3sat7literalE.exit.thread ], [ %10, %_ZNK6vectorIN3sat7literalELb0EjE4sizeEv.exit.preheader ]
  %14 = phi ptr [ %51, %_ZN3sls12bv_lookahead13is_bv_literalEN3sat7literalE.exit.thread ], [ %8, %_ZNK6vectorIN3sat7literalELb0EjE4sizeEv.exit.preheader ]
  %15 = phi ptr [ %50, %_ZN3sls12bv_lookahead13is_bv_literalEN3sat7literalE.exit.thread ], [ %7, %_ZNK6vectorIN3sat7literalELb0EjE4sizeEv.exit.preheader ]
  %16 = phi ptr [ %49, %_ZN3sls12bv_lookahead13is_bv_literalEN3sat7literalE.exit.thread ], [ %2, %_ZNK6vectorIN3sat7literalELb0EjE4sizeEv.exit.preheader ]
  %17 = getelementptr inbounds i8, ptr %13, i64 -4
  %18 = load i32, ptr %17, align 4, !tbaa !133
  %19 = icmp ult i32 %12, %18
  br i1 %19, label %20, label %.critedge

20:                                               ; preds = %_ZNK6vectorIN3sat7literalELb0EjE4sizeEv.exit
  %21 = zext i32 %12 to i64
  %22 = getelementptr inbounds nuw %"class.sat::literal", ptr %13, i64 %21
  %.sroa.0.0.copyload = load i32, ptr %22, align 4, !tbaa !133
  %23 = getelementptr inbounds nuw i8, ptr %14, i64 8
  %24 = load ptr, ptr %23, align 8, !tbaa !101
  %25 = load ptr, ptr %24, align 8, !tbaa !127
  %26 = getelementptr inbounds nuw i8, ptr %25, i64 80
  %27 = load ptr, ptr %26, align 8
  %28 = tail call noundef zeroext i1 %27(ptr noundef nonnull align 8 dereferenceable(8) %24, i32 %.sroa.0.0.copyload)
  br i1 %28, label %29, label %_ZN3sls12bv_lookahead13is_bv_literalEN3sat7literalE.exit.thread

29:                                               ; preds = %20
  %30 = load ptr, ptr %15, align 8, !tbaa !92
  %31 = lshr i32 %.sroa.0.0.copyload, 1
  %32 = getelementptr inbounds nuw i8, ptr %30, i64 80
  %33 = load ptr, ptr %32, align 8, !tbaa !132
  %34 = icmp eq ptr %33, null
  br i1 %34, label %_ZN3sls12bv_lookahead13is_bv_literalEN3sat7literalE.exit.thread, label %_ZNK6vectorIP4exprLb0EjE3getEjRKS1_.exit.i.i.i

_ZNK6vectorIP4exprLb0EjE3getEjRKS1_.exit.i.i.i:   ; preds = %29
  %35 = getelementptr inbounds i8, ptr %33, i64 -4
  %36 = load i32, ptr %35, align 4, !tbaa !133
  %.not.i.i.i.i = icmp ult i32 %31, %36
  br i1 %.not.i.i.i.i, label %_ZN3sls7context4atomEj.exit.i, label %_ZN3sls12bv_lookahead13is_bv_literalEN3sat7literalE.exit.thread

_ZN3sls7context4atomEj.exit.i:                    ; preds = %_ZNK6vectorIP4exprLb0EjE3getEjRKS1_.exit.i.i.i
  %37 = zext nneg i32 %31 to i64
  %38 = getelementptr inbounds nuw ptr, ptr %33, i64 %37
  %.then.val.i.i.i = load ptr, ptr %38, align 8, !tbaa !134
  %.not.i = icmp eq ptr %.then.val.i.i.i, null
  br i1 %.not.i, label %_ZN3sls12bv_lookahead13is_bv_literalEN3sat7literalE.exit.thread, label %39

39:                                               ; preds = %_ZN3sls7context4atomEj.exit.i
  %40 = getelementptr inbounds nuw i8, ptr %.then.val.i.i.i, i64 4
  %41 = load i32, ptr %40, align 4
  %42 = and i32 %41, 65535
  %43 = icmp eq i32 %42, 0
  br i1 %43, label %_ZN3sls12bv_lookahead13is_bv_literalEN3sat7literalE.exit, label %_ZN3sls12bv_lookahead13is_bv_literalEN3sat7literalE.exit.thread

_ZN3sls12bv_lookahead13is_bv_literalEN3sat7literalE.exit: ; preds = %39
  %44 = getelementptr inbounds nuw i8, ptr %16, i64 24
  %45 = load ptr, ptr %44, align 8, !tbaa !96
  %46 = tail call noundef zeroext i1 @_ZNK3sls7bv_eval9can_eval1EP4expr(ptr noundef nonnull align 8 dereferenceable(865) %45, ptr noundef nonnull %.then.val.i.i.i)
  br i1 %46, label %.critedge, label %_ZN3sls12bv_lookahead13is_bv_literalEN3sat7literalE.exit.thread

_ZN3sls12bv_lookahead13is_bv_literalEN3sat7literalE.exit.thread: ; preds = %29, %_ZNK6vectorIP4exprLb0EjE3getEjRKS1_.exit.i.i.i, %_ZN3sls7context4atomEj.exit.i, %39, %20, %_ZN3sls12bv_lookahead13is_bv_literalEN3sat7literalE.exit
  %47 = load i32, ptr %6, align 8, !tbaa !228
  %48 = add i32 %47, 1
  store i32 %48, ptr %6, align 8, !tbaa !228
  %49 = load ptr, ptr %0, align 8, !tbaa !225
  %50 = getelementptr inbounds nuw i8, ptr %49, i64 32
  %51 = load ptr, ptr %50, align 8, !tbaa !92
  %52 = getelementptr inbounds nuw i8, ptr %51, i64 112
  %53 = load ptr, ptr %52, align 8, !tbaa !169
  %54 = icmp eq ptr %53, null
  br i1 %54, label %.critedge, label %_ZNK6vectorIN3sat7literalELb0EjE4sizeEv.exit, !llvm.loop !170

.critedge:                                        ; preds = %_ZN3sls12bv_lookahead13is_bv_literalEN3sat7literalE.exit, %_ZNK6vectorIN3sat7literalELb0EjE4sizeEv.exit, %_ZN3sls12bv_lookahead13is_bv_literalEN3sat7literalE.exit.thread, %.preheader, %1
  ret void
}